target datalayout = "e-m:e-p270:32:32-p271:32:32-p272:64:64-i64:64-i128:128-f80:128-n8:16:32:64-S128"
target triple = "x86_64-pc-linux-gnu"

%"class.std::_Sp_counted_base" = type { ptr, i32, i32 }
%"class.std::_Sp_counted_ptr_inplace" = type { %"class.std::_Sp_counted_base", %"class.std::_Sp_counted_ptr_inplace<arrow::(anonymous namespace)::SignalStopState, std::allocator<void>, __gnu_cxx::_S_atomic>::_Impl" }
%"class.std::_Sp_counted_ptr_inplace<arrow::(anonymous namespace)::SignalStopState, std::allocator<void>, __gnu_cxx::_S_atomic>::_Impl" = type { %"struct.__gnu_cxx::__aligned_buffer" }
%"struct.__gnu_cxx::__aligned_buffer" = type { %"union.std::aligned_storage<144, 8>::type" }
%"union.std::aligned_storage<144, 8>::type" = type { [144 x i8] }
%"class.std::type_info" = type { ptr, ptr }

@_ZTISt19_Sp_make_shared_tag = linkonce_odr constant { ptr, ptr } { ptr getelementptr inbounds (ptr, ptr @_ZTVN10__cxxabiv117__class_type_infoE, i64 2), ptr @_ZTSSt19_Sp_make_shared_tag }, comdat, align 8
@_ZZNSt19_Sp_make_shared_tag5_S_tiEvE5__tag = linkonce_odr constant [16 x i8] zeroinitializer, comdat, align 8

; Function Attrs: mustprogress nounwind uwtable
define internal noundef ptr @_ZN9__gnu_cxx16__aligned_bufferIN5arrow12_GLOBAL__N_115SignalStopStateEE7_M_addrEv(ptr noundef nonnull align 8 dereferenceable(144) %0) #2 align 2 {
  %2 = alloca ptr, align 8
  store ptr %0, ptr %2, align 8, !tbaa !247
  %3 = load ptr, ptr %2, align 8
  %4 = getelementptr inbounds nuw %"struct.__gnu_cxx::__aligned_buffer", ptr %3, i32 0, i32 0
  ret ptr %4
}

; Function Attrs: mustprogress nounwind uwtable
define linkonce_odr noundef ptr @_ZNKSt9type_info4nameEv(ptr noundef nonnull align 8 dereferenceable(16) %0) #2 comdat align 2 {
  %2 = alloca ptr, align 8
  store ptr %0, ptr %2, align 8, !tbaa !151
  %3 = load ptr, ptr %2, align 8
  %4 = getelementptr inbounds nuw %"class.std::type_info", ptr %3, i32 0, i32 1
  %5 = load ptr, ptr %4, align 8, !tbaa !245
  %6 = getelementptr inbounds i8, ptr %5, i64 0
  %7 = load i8, ptr %6, align 1, !tbaa !81
  %8 = sext i8 %7 to i32
  %9 = icmp eq i32 %8, 42
  br i1 %9, label %10, label %14

10:                                               ; preds = %1
  %11 = getelementptr inbounds nuw %"class.std::type_info", ptr %3, i32 0, i32 1
  %12 = load ptr, ptr %11, align 8, !tbaa !245
  %13 = getelementptr inbounds i8, ptr %12, i64 1
  br label %17

14:                                               ; preds = %1
  %15 = getelementptr inbounds nuw %"class.std::type_info", ptr %3, i32 0, i32 1
  %16 = load ptr, ptr %15, align 8, !tbaa !245
  br label %17

17:                                               ; preds = %14, %10
  %18 = phi ptr [ %13, %10 ], [ %16, %14 ]
  ret ptr %18
}

; Function Attrs: mustprogress nounwind uwtable
define internal noundef ptr @_ZN9__gnu_cxx16__aligned_bufferIN5arrow12_GLOBAL__N_115SignalStopStateEE6_M_ptrEv(ptr noundef nonnull align 8 dereferenceable(144) %0) #2 align 2 {
  %2 = alloca ptr, align 8
  store ptr %0, ptr %2, align 8, !tbaa !247
  %3 = load ptr, ptr %2, align 8
  %4 = call noundef ptr @_ZN9__gnu_cxx16__aligned_bufferIN5arrow12_GLOBAL__N_115SignalStopStateEE7_M_addrEv(ptr noundef nonnull align 8 dereferenceable(144) %3) #12
  ret ptr %4
}

; Function Attrs: inlinehint mustprogress nounwind uwtable
define linkonce_odr noundef zeroext i1 @_ZNKSt9type_infoeqERKS_(ptr noundef nonnull align 8 dereferenceable(16) %0, ptr noundef nonnull align 8 dereferenceable(16) %1) #4 comdat align 2 {
  %3 = alloca i1, align 1
  %4 = alloca ptr, align 8
  %5 = alloca ptr, align 8
  store ptr %0, ptr %4, align 8, !tbaa !151
  store ptr %1, ptr %5, align 8, !tbaa !151
  %6 = load ptr, ptr %4, align 8
  %7 = getelementptr inbounds nuw %"class.std::type_info", ptr %6, i32 0, i32 1
  %8 = load ptr, ptr %7, align 8, !tbaa !245
  %9 = load ptr, ptr %5, align 8, !tbaa !151
  %10 = getelementptr inbounds nuw %"class.std::type_info", ptr %9, i32 0, i32 1
  %11 = load ptr, ptr %10, align 8, !tbaa !245
  %12 = icmp eq ptr %8, %11
  br i1 %12, label %13, label %14

13:                                               ; preds = %2
  store i1 true, ptr %3, align 1
  br label %30

14:                                               ; preds = %2
  %15 = getelementptr inbounds nuw %"class.std::type_info", ptr %6, i32 0, i32 1
  %16 = load ptr, ptr %15, align 8, !tbaa !245
  %17 = getelementptr inbounds i8, ptr %16, i64 0
  %18 = load i8, ptr %17, align 1, !tbaa !81
  %19 = sext i8 %18 to i32
  %20 = icmp ne i32 %19, 42
  br i1 %20, label %21, label %28

21:                                               ; preds = %14
  %22 = getelementptr inbounds nuw %"class.std::type_info", ptr %6, i32 0, i32 1
  %23 = load ptr, ptr %22, align 8, !tbaa !245
  %24 = load ptr, ptr %5, align 8, !tbaa !151
  %25 = call noundef ptr @_ZNKSt9type_info4nameEv(ptr noundef nonnull align 8 dereferenceable(16) %24) #12
  %26 = call i32 @strcmp(ptr noundef %23, ptr noundef %25) #12
  %27 = icmp eq i32 %26, 0
  br label %28

28:                                               ; preds = %21, %14
  %29 = phi i1 [ false, %14 ], [ %27, %21 ]
  store i1 %29, ptr %3, align 1
  br label %30

30:                                               ; preds = %28, %13
  %31 = load i1, ptr %3, align 1
  ret i1 %31
}

; Function Attrs: mustprogress nounwind uwtable
define linkonce_odr noundef nonnull align 8 dereferenceable(16) ptr @_ZNSt19_Sp_make_shared_tag5_S_tiEv() #2 comdat align 2 {
  ret ptr @_ZZNSt19_Sp_make_shared_tag5_S_tiEvE5__tag
}

; Function Attrs: mustprogress nounwind uwtable
define internal noundef ptr @_ZNSt23_Sp_counted_ptr_inplaceIN5arrow12_GLOBAL__N_115SignalStopStateESaIvELN9__gnu_cxx12_Lock_policyE2EE6_M_ptrEv(ptr noundef nonnull align 8 dereferenceable(160) %0) #2 align 2 {
  %2 = alloca ptr, align 8
  store ptr %0, ptr %2, align 8, !tbaa !134
  %3 = load ptr, ptr %2, align 8
  %4 = getelementptr inbounds nuw %"class.std::_Sp_counted_ptr_inplace", ptr %3, i32 0, i32 1
  %5 = getelementptr inbounds nuw %"class.std::_Sp_counted_ptr_inplace<arrow::(anonymous namespace)::SignalStopState, std::allocator<void>, __gnu_cxx::_S_atomic>::_Impl", ptr %4, i32 0, i32 0
  %6 = call noundef ptr @_ZN9__gnu_cxx16__aligned_bufferIN5arrow12_GLOBAL__N_115SignalStopStateEE6_M_ptrEv(ptr noundef nonnull align 8 dereferenceable(144) %5) #12
  ret ptr %6
}

; Function Attrs: mustprogress nounwind uwtable
define internal noundef ptr @_ZNSt23_Sp_counted_ptr_inplaceIN5arrow12_GLOBAL__N_115SignalStopStateESaIvELN9__gnu_cxx12_Lock_policyE2EE14_M_get_deleterERKSt9type_info(ptr noundef nonnull align 8 dereferenceable(160) %0, ptr noundef nonnull align 8 dereferenceable(16) %1) unnamed_addr #2 align 2 {
  %3 = alloca ptr, align 8
  %4 = alloca ptr, align 8
  %5 = alloca ptr, align 8
  %6 = alloca ptr, align 8
  %7 = alloca i32, align 4
  store ptr %0, ptr %4, align 8, !tbaa !134
  store ptr %1, ptr %5, align 8, !tbaa !151
  %8 = load ptr, ptr %4, align 8
  call void @llvm.lifetime.start.p0(i64 8, ptr %6) #12
  %9 = call noundef ptr @_ZNSt23_Sp_counted_ptr_inplaceIN5arrow12_GLOBAL__N_115SignalStopStateESaIvELN9__gnu_cxx12_Lock_policyE2EE6_M_ptrEv(ptr noundef nonnull align 8 dereferenceable(160) %8) #12
  store ptr %9, ptr %6, align 8, !tbaa !60
  %10 = load ptr, ptr %5, align 8, !tbaa !151
  %11 = call noundef nonnull align 8 dereferenceable(16) ptr @_ZNSt19_Sp_make_shared_tag5_S_tiEv() #12
  %12 = icmp eq ptr %10, %11
  br i1 %12, label %16, label %13

13:                                               ; preds = %2
  %14 = load ptr, ptr %5, align 8, !tbaa !151
  %15 = call noundef zeroext i1 @_ZNKSt9type_infoeqERKS_(ptr noundef nonnull align 8 dereferenceable(16) %14, ptr noundef nonnull align 8 dereferenceable(16) @_ZTISt19_Sp_make_shared_tag) #12
  br i1 %15, label %16, label %18

16:                                               ; preds = %13, %2
  %17 = load ptr, ptr %6, align 8, !tbaa !60
  store ptr %17, ptr %3, align 8
  store i32 1, ptr %7, align 4
  br label %19

18:                                               ; preds = %13
  store ptr null, ptr %3, align 8
  store i32 1, ptr %7, align 4
  br label %19

19:                                               ; preds = %18, %16
  call void @llvm.lifetime.end.p0(i64 8, ptr %6) #12
  %20 = load ptr, ptr %3, align 8
  ret ptr %20
}